(dp1
S'OriginalConfig'
p2
ccopy_reg
_reconstructor
p3
(cWMCore.Configuration
Configuration
p4
c__builtin__
object
p5
NtRp6
(dp7
S'Site'
p8
g3
(cWMCore.Configuration
ConfigSection
p9
g5
NtRp10
(dp11
S'_internal_documentation'
p12
S''
sS'_internal_settings'
p13
c__builtin__
set
p14
((lp15
S'storageSite'
p16
atRp17
sS'_internal_name'
p18
g8
sS'_internal_docstrings'
p19
(dp20
sS'_internal_children'
p21
g14
((ltRp22
sg16
S'T2_UK_SGrid_Bristol'
p23
sS'_internal_parent_ref'
p24
NsbsS'_internal_sections'
p25
(lp26
S'General'
p27
aS'JobType'
p28
aS'Data'
p29
aS'User'
p30
ag8
asg27
g3
(g9
g5
NtRp31
(dp32
g12
S''
sg13
g14
((lp33
S'requestName'
p34
atRp35
sg18
g27
sg19
(dp36
sg21
g14
((ltRp37
sg34
S'Crab_Trigger_Sample'
p38
sg24
NsbsS'_internal_webapps'
p39
(lp40
sg30
g3
(g9
g5
NtRp41
(dp42
g12
S''
sg13
g14
((ltRp43
sg18
g30
sg19
(dp44
sg21
g14
((ltRp45
sg24
NsbsS'_internal_components'
p46
(lp47
sg29
g3
(g9
g5
NtRp48
(dp49
S'inputDataset'
p50
S'/TTJets_TuneCUETP8M1_13TeV-amcatnloFXFX-pythia8/RunIISpring15DR74-Asympt25ns_MCRUN2_74_V9-v1/MINIAODSIM'
p51
sS'unitsPerJob'
p52
I20
sg12
S''
sg13
g14
((lp53
g50
ag52
aS'splitting'
p54
atRp55
sg18
g29
sg54
S'FileBased'
p56
sg19
(dp57
sg21
g14
((ltRp58
sg24
Nsbsg28
g3
(g9
g5
NtRp59
(dp60
g12
S''
sg13
g14
((lp61
S'psetName'
p62
aS'pluginName'
p63
atRp64
sg18
g28
sg19
(dp65
sg63
S'Analysis'
p66
sg21
g14
((ltRp67
sg62
S'ConfFile_cfg.py'
p68
sg24
NsbsbsS'voGroup'
p69
S''
sS'Server'
p70
S'cmsweb.cern.ch'
p71
sS'instance'
p72
S'prod'
p73
sS'RequestName'
p74
S'150601_093330:doburns_crab_Crab_Trigger_Sample'
p75
sS'voRole'
p76
S'NULL'
p77
sS'Port'
p78
S''
s.